target datalayout = "e-m:e-p270:32:32-p271:32:32-p272:64:64-i64:64-i128:128-f80:128-n8:16:32:64-S128"
target triple = "x86_64-pc-linux-gnu"

; Function Attrs: alwaysinline nounwind
define internal ptr @memmove.inline(ptr nonnull %0, ptr nonnull %1, i64 %2) #3 {
  %4 = alloca ptr, align 8
  %5 = alloca ptr, align 8
  %6 = alloca i64, align 8
  store ptr %0, ptr %4, align 8
  store ptr %1, ptr %5, align 8
  store i64 %2, ptr %6, align 8
  %7 = load ptr, ptr %4, align 8
  %8 = load ptr, ptr %5, align 8
  %9 = load i64, ptr %6, align 8
  %10 = load ptr, ptr %4, align 8
  %11 = call i64 @llvm.objectsize.i64.p0(ptr %10, i1 false, i1 true, i1 true)
  %12 = call ptr @__memmove_chk(ptr noundef %7, ptr noundef %8, i64 noundef %9, i64 noundef %11) #7
  ret ptr %12
}

; Function Attrs: alwaysinline nounwind
define internal ptr @memset.inline(ptr nonnull %0, i32 %1, i64 %2) #3 {
  %4 = alloca ptr, align 8
  %5 = alloca i32, align 4
  %6 = alloca i64, align 8
  store ptr %0, ptr %4, align 8
  store i32 %1, ptr %5, align 4
  store i64 %2, ptr %6, align 8
  %7 = load ptr, ptr %4, align 8
  %8 = load i32, ptr %5, align 4
  %9 = load i64, ptr %6, align 8
  %10 = load ptr, ptr %4, align 8
  %11 = call i64 @llvm.objectsize.i64.p0(ptr %10, i1 false, i1 true, i1 true)
  %12 = call ptr @__memset_chk(ptr noundef %7, i32 noundef %8, i64 noundef %9, i64 noundef %11) #7
  ret ptr %12
}

; Function Attrs: nounwind ssp uwtable
define dso_local i32 @crypto_secretbox_open_detached(ptr noundef %0, ptr noundef nonnull %1, ptr noundef nonnull %2, i64 noundef %3, ptr noundef nonnull %4, ptr noundef nonnull %5) #0 {
  %7 = alloca i32, align 4
  %8 = alloca ptr, align 8
  %9 = alloca ptr, align 8
  %10 = alloca ptr, align 8
  %11 = alloca i64, align 8
  %12 = alloca ptr, align 8
  %13 = alloca ptr, align 8
  %14 = alloca [64 x i8], align 16
  %15 = alloca [32 x i8], align 16
  %16 = alloca i64, align 8
  %17 = alloca i64, align 8
  %18 = alloca i32, align 4
  store ptr %0, ptr %8, align 8
  store ptr %1, ptr %9, align 8
  store ptr %2, ptr %10, align 8
  store i64 %3, ptr %11, align 8
  store ptr %4, ptr %12, align 8
  store ptr %5, ptr %13, align 8
  call void @llvm.lifetime.start.p0(i64 64, ptr %14) #7
  call void @llvm.lifetime.start.p0(i64 32, ptr %15) #7
  call void @llvm.lifetime.start.p0(i64 8, ptr %16) #7
  call void @llvm.lifetime.start.p0(i64 8, ptr %17) #7
  %19 = getelementptr inbounds [32 x i8], ptr %15, i64 0, i64 0
  %20 = load ptr, ptr %12, align 8
  %21 = load ptr, ptr %13, align 8
  %22 = call i32 @crypto_core_hsalsa20(ptr noundef %19, ptr noundef %20, ptr noundef %21, ptr noundef null)
  %23 = getelementptr inbounds [64 x i8], ptr %14, i64 0, i64 0
  %24 = call ptr @memset.inline(ptr noundef %23, i32 noundef 0, i64 noundef 32) #7
  %25 = load i64, ptr %11, align 8
  store i64 %25, ptr %17, align 8
  %26 = load i64, ptr %17, align 8
  %27 = icmp ugt i64 %26, 32
  br i1 %27, label %28, label %29

28:                                               ; preds = %6
  store i64 32, ptr %17, align 8
  br label %29

29:                                               ; preds = %28, %6
  store i64 0, ptr %16, align 8
  br label %30

30:                                               ; preds = %42, %29
  %31 = load i64, ptr %16, align 8
  %32 = load i64, ptr %17, align 8
  %33 = icmp ult i64 %31, %32
  br i1 %33, label %34, label %45

34:                                               ; preds = %30
  %35 = load ptr, ptr %9, align 8
  %36 = load i64, ptr %16, align 8
  %37 = getelementptr i8, ptr %35, i64 %36
  %38 = load i8, ptr %37, align 1
  %39 = load i64, ptr %16, align 8
  %40 = add i64 32, %39
  %41 = getelementptr [64 x i8], ptr %14, i64 0, i64 %40
  store i8 %38, ptr %41, align 1
  br label %42

42:                                               ; preds = %34
  %43 = load i64, ptr %16, align 8
  %44 = add i64 %43, 1
  store i64 %44, ptr %16, align 8
  br label %30, !llvm.loop !7

45:                                               ; preds = %30
  %46 = getelementptr inbounds [64 x i8], ptr %14, i64 0, i64 0
  %47 = getelementptr inbounds [64 x i8], ptr %14, i64 0, i64 0
  %48 = load ptr, ptr %12, align 8
  %49 = getelementptr i8, ptr %48, i64 16
  %50 = getelementptr inbounds [32 x i8], ptr %15, i64 0, i64 0
  %51 = call i32 @crypto_stream_salsa20_xor(ptr noundef %46, ptr noundef %47, i64 noundef 64, ptr noundef %49, ptr noundef %50)
  %52 = load ptr, ptr %10, align 8
  %53 = load ptr, ptr %9, align 8
  %54 = load i64, ptr %11, align 8
  %55 = getelementptr inbounds [64 x i8], ptr %14, i64 0, i64 0
  %56 = call i32 @crypto_onetimeauth_poly1305_verify(ptr noundef %52, ptr noundef %53, i64 noundef %54, ptr noundef %55)
  %57 = icmp ne i32 %56, 0
  br i1 %57, label %58, label %60

58:                                               ; preds = %45
  %59 = getelementptr inbounds [32 x i8], ptr %15, i64 0, i64 0
  call void @sodium_memzero(ptr noundef %59, i64 noundef 32)
  store i32 -1, ptr %7, align 4
  store i32 1, ptr %18, align 4
  br label %135

60:                                               ; preds = %45
  %61 = load ptr, ptr %8, align 8
  %62 = icmp eq ptr %61, null
  br i1 %62, label %63, label %64

63:                                               ; preds = %60
  store i32 0, ptr %7, align 4
  store i32 1, ptr %18, align 4
  br label %135

64:                                               ; preds = %60
  %65 = load ptr, ptr %9, align 8
  %66 = ptrtoint ptr %65 to i64
  %67 = load ptr, ptr %8, align 8
  %68 = ptrtoint ptr %67 to i64
  %69 = icmp ugt i64 %66, %68
  br i1 %69, label %70, label %78

70:                                               ; preds = %64
  %71 = load ptr, ptr %9, align 8
  %72 = ptrtoint ptr %71 to i64
  %73 = load ptr, ptr %8, align 8
  %74 = ptrtoint ptr %73 to i64
  %75 = sub i64 %72, %74
  %76 = load i64, ptr %11, align 8
  %77 = icmp ult i64 %75, %76
  br i1 %77, label %92, label %78

78:                                               ; preds = %70, %64
  %79 = load ptr, ptr %8, align 8
  %80 = ptrtoint ptr %79 to i64
  %81 = load ptr, ptr %9, align 8
  %82 = ptrtoint ptr %81 to i64
  %83 = icmp ugt i64 %80, %82
  br i1 %83, label %84, label %98

84:                                               ; preds = %78
  %85 = load ptr, ptr %8, align 8
  %86 = ptrtoint ptr %85 to i64
  %87 = load ptr, ptr %9, align 8
  %88 = ptrtoint ptr %87 to i64
  %89 = sub i64 %86, %88
  %90 = load i64, ptr %11, align 8
  %91 = icmp ult i64 %89, %90
  br i1 %91, label %92, label %98

92:                                               ; preds = %84, %70
  %93 = load ptr, ptr %8, align 8
  %94 = load ptr, ptr %9, align 8
  %95 = load i64, ptr %11, align 8
  %96 = call ptr @memmove.inline(ptr noundef %93, ptr noundef %94, i64 noundef %95) #7
  %97 = load ptr, ptr %8, align 8
  store ptr %97, ptr %9, align 8
  br label %98

98:                                               ; preds = %92, %84, %78
  store i64 0, ptr %16, align 8
  br label %99

99:                                               ; preds = %111, %98
  %100 = load i64, ptr %16, align 8
  %101 = load i64, ptr %17, align 8
  %102 = icmp ult i64 %100, %101
  br i1 %102, label %103, label %114

103:                                              ; preds = %99
  %104 = load i64, ptr %16, align 8
  %105 = add i64 32, %104
  %106 = getelementptr [64 x i8], ptr %14, i64 0, i64 %105
  %107 = load i8, ptr %106, align 1
  %108 = load ptr, ptr %8, align 8
  %109 = load i64, ptr %16, align 8
  %110 = getelementptr i8, ptr %108, i64 %109
  store i8 %107, ptr %110, align 1
  br label %111

111:                                              ; preds = %103
  %112 = load i64, ptr %16, align 8
  %113 = add i64 %112, 1
  store i64 %113, ptr %16, align 8
  br label %99, !llvm.loop !8

114:                                              ; preds = %99
  %115 = getelementptr inbounds [64 x i8], ptr %14, i64 0, i64 0
  call void @sodium_memzero(ptr noundef %115, i64 noundef 64)
  %116 = load i64, ptr %11, align 8
  %117 = load i64, ptr %17, align 8
  %118 = icmp ugt i64 %116, %117
  br i1 %118, label %119, label %133

119:                                              ; preds = %114
  %120 = load ptr, ptr %8, align 8
  %121 = load i64, ptr %17, align 8
  %122 = getelementptr i8, ptr %120, i64 %121
  %123 = load ptr, ptr %9, align 8
  %124 = load i64, ptr %17, align 8
  %125 = getelementptr i8, ptr %123, i64 %124
  %126 = load i64, ptr %11, align 8
  %127 = load i64, ptr %17, align 8
  %128 = sub i64 %126, %127
  %129 = load ptr, ptr %12, align 8
  %130 = getelementptr i8, ptr %129, i64 16
  %131 = getelementptr inbounds [32 x i8], ptr %15, i64 0, i64 0
  %132 = call i32 @crypto_stream_salsa20_xor_ic(ptr noundef %122, ptr noundef %125, i64 noundef %128, ptr noundef %130, i64 noundef 1, ptr noundef %131)
  br label %133

133:                                              ; preds = %119, %114
  %134 = getelementptr inbounds [32 x i8], ptr %15, i64 0, i64 0
  call void @sodium_memzero(ptr noundef %134, i64 noundef 32)
  store i32 0, ptr %7, align 4
  store i32 1, ptr %18, align 4
  br label %135

135:                                              ; preds = %133, %63, %58
  call void @llvm.lifetime.end.p0(i64 8, ptr %17) #7
  call void @llvm.lifetime.end.p0(i64 8, ptr %16) #7
  call void @llvm.lifetime.end.p0(i64 32, ptr %15) #7
  call void @llvm.lifetime.end.p0(i64 64, ptr %14) #7
  %136 = load i32, ptr %7, align 4
  ret i32 %136
}